; ModuleID = '33/2166.c'
source_filename = "33/2166.c"
target datalayout = "e-m:e-p270:32:32-p271:32:32-p272:64:64-i64:64-f80:128-n8:16:32:64-S128"
target triple = "x86_64-pc-linux-gnu"

@.str = private unnamed_addr constant [3 x i8] c"%d\00", align 1

; Function Attrs: noinline nounwind uwtable
define dso_local void @dna() #0 {
  %1 = alloca i32, align 4
  %2 = alloca [255 x i8], align 16
  %3 = getelementptr inbounds [255 x i8], [255 x i8]* %2, i64 0, i64 0
  %4 = call i32 (i8*, ...) bitcast (i32 (...)* @gets to i32 (i8*, ...)*)(i8* %3)
  store i32 0, i32* %1, align 4
  br label %5

5:                                                ; preds = %59, %0
  %6 = load i32, i32* %1, align 4
  %7 = sext i32 %6 to i64
  %8 = getelementptr inbounds [255 x i8], [255 x i8]* %2, i64 0, i64 0
  %9 = call i64 @strlen(i8* %8) #3
  %10 = icmp ult i64 %7, %9
  br i1 %10, label %11, label %62

11:                                               ; preds = %5
  %12 = load i32, i32* %1, align 4
  %13 = sext i32 %12 to i64
  %14 = getelementptr inbounds [255 x i8], [255 x i8]* %2, i64 0, i64 %13
  %15 = load i8, i8* %14, align 1
  %16 = sext i8 %15 to i32
  %17 = icmp eq i32 %16, 65
  br i1 %17, label %18, label %22

18:                                               ; preds = %11
  %19 = load i32, i32* %1, align 4
  %20 = sext i32 %19 to i64
  %21 = getelementptr inbounds [255 x i8], [255 x i8]* %2, i64 0, i64 %20
  store i8 84, i8* %21, align 1
  br label %58

22:                                               ; preds = %11
  %23 = load i32, i32* %1, align 4
  %24 = sext i32 %23 to i64
  %25 = getelementptr inbounds [255 x i8], [255 x i8]* %2, i64 0, i64 %24
  %26 = load i8, i8* %25, align 1
  %27 = sext i8 %26 to i32
  %28 = icmp eq i32 %27, 84
  br i1 %28, label %29, label %33

29:                                               ; preds = %22
  %30 = load i32, i32* %1, align 4
  %31 = sext i32 %30 to i64
  %32 = getelementptr inbounds [255 x i8], [255 x i8]* %2, i64 0, i64 %31
  store i8 65, i8* %32, align 1
  br label %57

33:                                               ; preds = %22
  %34 = load i32, i32* %1, align 4
  %35 = sext i32 %34 to i64
  %36 = getelementptr inbounds [255 x i8], [255 x i8]* %2, i64 0, i64 %35
  %37 = load i8, i8* %36, align 1
  %38 = sext i8 %37 to i32
  %39 = icmp eq i32 %38, 67
  br i1 %39, label %40, label %44

40:                                               ; preds = %33
  %41 = load i32, i32* %1, align 4
  %42 = sext i32 %41 to i64
  %43 = getelementptr inbounds [255 x i8], [255 x i8]* %2, i64 0, i64 %42
  store i8 71, i8* %43, align 1
  br label %56

44:                                               ; preds = %33
  %45 = load i32, i32* %1, align 4
  %46 = sext i32 %45 to i64
  %47 = getelementptr inbounds [255 x i8], [255 x i8]* %2, i64 0, i64 %46
  %48 = load i8, i8* %47, align 1
  %49 = sext i8 %48 to i32
  %50 = icmp eq i32 %49, 71
  br i1 %50, label %51, label %55

51:                                               ; preds = %44
  %52 = load i32, i32* %1, align 4
  %53 = sext i32 %52 to i64
  %54 = getelementptr inbounds [255 x i8], [255 x i8]* %2, i64 0, i64 %53
  store i8 67, i8* %54, align 1
  br label %55

55:                                               ; preds = %51, %44
  br label %56

56:                                               ; preds = %55, %40
  br label %57

57:                                               ; preds = %56, %29
  br label %58

58:                                               ; preds = %57, %18
  br label %59

59:                                               ; preds = %58
  %60 = load i32, i32* %1, align 4
  %61 = add nsw i32 %60, 1
  store i32 %61, i32* %1, align 4
  br label %5

62:                                               ; preds = %5
  %63 = getelementptr inbounds [255 x i8], [255 x i8]* %2, i64 0, i64 0
  %64 = call i32 @puts(i8* %63)
  ret void
}

declare dso_local i32 @gets(...) #1

; Function Attrs: nounwind readonly
declare dso_local i64 @strlen(i8*) #2

declare dso_local i32 @puts(i8*) #1

; Function Attrs: noinline nounwind uwtable
define dso_local i32 @main() #0 {
  %1 = alloca i32, align 4
  %2 = alloca i32, align 4
  %3 = alloca i32, align 4
  store i32 0, i32* %1, align 4
  %4 = call i32 (i8*, ...) @__isoc99_scanf(i8* getelementptr inbounds ([3 x i8], [3 x i8]* @.str, i64 0, i64 0), i32* %2)
  %5 = call i32 @getchar()
  store i32 0, i32* %3, align 4
  br label %6

6:                                                ; preds = %11, %0
  %7 = load i32, i32* %3, align 4
  %8 = load i32, i32* %2, align 4
  %9 = icmp slt i32 %7, %8
  br i1 %9, label %10, label %14

10:                                               ; preds = %6
  call void @dna()
  br label %11

11:                                               ; preds = %10
  %12 = load i32, i32* %3, align 4
  %13 = add nsw i32 %12, 1
  store i32 %13, i32* %3, align 4
  br label %6

14:                                               ; preds = %6
  %15 = load i32, i32* %1, align 4
  ret i32 %15
}

declare dso_local i32 @__isoc99_scanf(i8*, ...) #1

declare dso_local i32 @getchar() #1


!llvm.module.flags = !{!0}
!llvm.ident = !{!1}

!0 = !{i32 1, !"wchar_size", i32 4}
!1 = !{!"clang version 10.0.0-4ubuntu1 "}
